; ModuleID = '7/1283.c'
source_filename = "7/1283.c"
target datalayout = "e-m:e-p270:32:32-p271:32:32-p272:64:64-i64:64-f80:128-n8:16:32:64-S128"
target triple = "x86_64-pc-linux-gnu"

@.str = private unnamed_addr constant [7 x i8] c"%s%s%s\00", align 1
@.str.1 = private unnamed_addr constant [4 x i8] c"%s\0A\00", align 1
@.str.2 = private unnamed_addr constant [3 x i8] c"%c\00", align 1
@.str.3 = private unnamed_addr constant [3 x i8] c"%s\00", align 1

; Function Attrs: noinline nounwind uwtable
define dso_local i32 @search(i8* %0, i8* %1) #0 {
  %3 = alloca i32, align 4
  %4 = alloca i8*, align 8
  %5 = alloca i8*, align 8
  %6 = alloca i32, align 4
  %7 = alloca i32, align 4
  %8 = alloca i32, align 4
  %9 = alloca i32, align 4
  store i8* %0, i8** %4, align 8
  store i8* %1, i8** %5, align 8
  %10 = load i8*, i8** %4, align 8
  %11 = call i64 @strlen(i8* %10) #3
  %12 = trunc i64 %11 to i32
  store i32 %12, i32* %6, align 4
  %13 = load i8*, i8** %5, align 8
  %14 = call i64 @strlen(i8* %13) #3
  %15 = trunc i64 %14 to i32
  store i32 %15, i32* %7, align 4
  store i32 0, i32* %8, align 4
  br label %16

16:                                               ; preds = %55, %2
  %17 = load i32, i32* %8, align 4
  %18 = load i32, i32* %7, align 4
  %19 = load i32, i32* %6, align 4
  %20 = sub nsw i32 %18, %19
  %21 = icmp sle i32 %17, %20
  br i1 %21, label %22, label %58

22:                                               ; preds = %16
  store i32 0, i32* %9, align 4
  br label %23

23:                                               ; preds = %45, %22
  %24 = load i32, i32* %9, align 4
  %25 = load i32, i32* %6, align 4
  %26 = icmp slt i32 %24, %25
  br i1 %26, label %27, label %48

27:                                               ; preds = %23
  %28 = load i8*, i8** %4, align 8
  %29 = load i32, i32* %9, align 4
  %30 = sext i32 %29 to i64
  %31 = getelementptr inbounds i8, i8* %28, i64 %30
  %32 = load i8, i8* %31, align 1
  %33 = sext i8 %32 to i32
  %34 = load i8*, i8** %5, align 8
  %35 = load i32, i32* %8, align 4
  %36 = load i32, i32* %9, align 4
  %37 = add nsw i32 %35, %36
  %38 = sext i32 %37 to i64
  %39 = getelementptr inbounds i8, i8* %34, i64 %38
  %40 = load i8, i8* %39, align 1
  %41 = sext i8 %40 to i32
  %42 = icmp ne i32 %33, %41
  br i1 %42, label %43, label %44

43:                                               ; preds = %27
  br label %48

44:                                               ; preds = %27
  br label %45

45:                                               ; preds = %44
  %46 = load i32, i32* %9, align 4
  %47 = add nsw i32 %46, 1
  store i32 %47, i32* %9, align 4
  br label %23

48:                                               ; preds = %43, %23
  %49 = load i32, i32* %9, align 4
  %50 = load i32, i32* %6, align 4
  %51 = icmp eq i32 %49, %50
  br i1 %51, label %52, label %54

52:                                               ; preds = %48
  %53 = load i32, i32* %8, align 4
  store i32 %53, i32* %3, align 4
  br label %59

54:                                               ; preds = %48
  br label %55

55:                                               ; preds = %54
  %56 = load i32, i32* %8, align 4
  %57 = add nsw i32 %56, 1
  store i32 %57, i32* %8, align 4
  br label %16

58:                                               ; preds = %16
  store i32 999, i32* %3, align 4
  br label %59

59:                                               ; preds = %58, %52
  %60 = load i32, i32* %3, align 4
  ret i32 %60
}

; Function Attrs: nounwind readonly
declare dso_local i64 @strlen(i8*) #1

; Function Attrs: noinline nounwind uwtable
define dso_local i32 @main() #0 {
  %1 = alloca i32, align 4
  %2 = alloca [300 x i8], align 16
  %3 = alloca [300 x i8], align 16
  %4 = alloca [300 x i8], align 16
  %5 = alloca i32, align 4
  %6 = alloca i32, align 4
  store i32 0, i32* %1, align 4
  %7 = call i32 (i8*, ...) @__isoc99_scanf(i8* getelementptr inbounds ([7 x i8], [7 x i8]* @.str, i64 0, i64 0), [300 x i8]* %2, [300 x i8]* %3, [300 x i8]* %4)
  %8 = getelementptr inbounds [300 x i8], [300 x i8]* %3, i64 0, i64 0
  %9 = getelementptr inbounds [300 x i8], [300 x i8]* %2, i64 0, i64 0
  %10 = call i32 @search(i8* %8, i8* %9)
  store i32 %10, i32* %5, align 4
  %11 = load i32, i32* %5, align 4
  %12 = icmp eq i32 %11, 999
  br i1 %12, label %13, label %18

13:                                               ; preds = %0
  %14 = getelementptr inbounds [300 x i8], [300 x i8]* %2, i64 0, i64 0
  %15 = call i32 (i8*, ...) @printf(i8* getelementptr inbounds ([4 x i8], [4 x i8]* @.str.1, i64 0, i64 0), i8* %14)
  %16 = call i32 @getchar()
  %17 = call i32 @getchar()
  store i32 0, i32* %1, align 4
  br label %61

18:                                               ; preds = %0
  store i32 0, i32* %6, align 4
  br label %19

19:                                               ; preds = %30, %18
  %20 = load i32, i32* %6, align 4
  %21 = load i32, i32* %5, align 4
  %22 = icmp slt i32 %20, %21
  br i1 %22, label %23, label %33

23:                                               ; preds = %19
  %24 = load i32, i32* %6, align 4
  %25 = sext i32 %24 to i64
  %26 = getelementptr inbounds [300 x i8], [300 x i8]* %2, i64 0, i64 %25
  %27 = load i8, i8* %26, align 1
  %28 = sext i8 %27 to i32
  %29 = call i32 (i8*, ...) @printf(i8* getelementptr inbounds ([3 x i8], [3 x i8]* @.str.2, i64 0, i64 0), i32 %28)
  br label %30

30:                                               ; preds = %23
  %31 = load i32, i32* %6, align 4
  %32 = add nsw i32 %31, 1
  store i32 %32, i32* %6, align 4
  br label %19

33:                                               ; preds = %19
  %34 = getelementptr inbounds [300 x i8], [300 x i8]* %4, i64 0, i64 0
  %35 = call i32 (i8*, ...) @printf(i8* getelementptr inbounds ([3 x i8], [3 x i8]* @.str.3, i64 0, i64 0), i8* %34)
  %36 = getelementptr inbounds [300 x i8], [300 x i8]* %3, i64 0, i64 0
  %37 = call i64 @strlen(i8* %36) #3
  %38 = load i32, i32* %6, align 4
  %39 = sext i32 %38 to i64
  %40 = add i64 %39, %37
  %41 = trunc i64 %40 to i32
  store i32 %41, i32* %6, align 4
  br label %42

42:                                               ; preds = %55, %33
  %43 = load i32, i32* %6, align 4
  %44 = sext i32 %43 to i64
  %45 = getelementptr inbounds [300 x i8], [300 x i8]* %2, i64 0, i64 0
  %46 = call i64 @strlen(i8* %45) #3
  %47 = icmp ult i64 %44, %46
  br i1 %47, label %48, label %58

48:                                               ; preds = %42
  %49 = load i32, i32* %6, align 4
  %50 = sext i32 %49 to i64
  %51 = getelementptr inbounds [300 x i8], [300 x i8]* %2, i64 0, i64 %50
  %52 = load i8, i8* %51, align 1
  %53 = sext i8 %52 to i32
  %54 = call i32 (i8*, ...) @printf(i8* getelementptr inbounds ([3 x i8], [3 x i8]* @.str.2, i64 0, i64 0), i32 %53)
  br label %55

55:                                               ; preds = %48
  %56 = load i32, i32* %6, align 4
  %57 = add nsw i32 %56, 1
  store i32 %57, i32* %6, align 4
  br label %42

58:                                               ; preds = %42
  %59 = call i32 @getchar()
  %60 = call i32 @getchar()
  store i32 0, i32* %1, align 4
  br label %61

61:                                               ; preds = %58, %13
  %62 = load i32, i32* %1, align 4
  ret i32 %62
}

declare dso_local i32 @__isoc99_scanf(i8*, ...) #2

declare dso_local i32 @printf(i8*, ...) #2

declare dso_local i32 @getchar() #2


!llvm.module.flags = !{!0}
!llvm.ident = !{!1}

!0 = !{i32 1, !"wchar_size", i32 4}
!1 = !{!"clang version 10.0.0-4ubuntu1 "}
